ccollections
defaultdict
p0
(c__builtin__
float
p1
tp2
Rp3
S'limited'
p4
F1.3084332288680873
sS'suicidal'
p5
F-5.695540907854593
sS'dynamic'
p6
F4.222884517045742
sS'controversial'
p7
F-1.0804203910133332
sS'hating'
p8
F3.5347001258279263
sS'hate'
p9
F0.011569356894283017
sS'poorly'
p10
F-2.8638948087072813
sS'stinks'
p11
F-1.0804203910133332
sS'spew'
p12
F3.5347001258279263
sS'originality'
p13
F-6.383725299072409
sS'tenacity'
p14
F3.5347001258279263
sS'sorry'
p15
F-2.17770112156193
sS'pride'
p16
F4.626689873735542
sS'worth'
p17
F1.7271047763568377
sS'blistering'
p18
F-5.695540907854593
sS'risk'
p19
F3.5347001258279263
sS'compassion'
p20
F-1.7686047822311495
sS'manic'
p21
F3.5347001258279263
sS'bewildered'
p22
F3.5347001258279263
sS'prize'
p23
F-1.0804203910133332
sS'notorious'
p24
F-5.695540907854593
sS'supports'
p25
F3.5347001258279263
sS'loneliness'
p26
F3.5347001258279263
sS'solid'
p27
F1.8052415645764661
sS'brutish'
p28
F3.5347001258279263
sS'irrationally'
p29
F3.5347001258279263
sS'enhance'
p30
F-1.0804203910133332
sS'triumph'
p31
F3.5347001258279263
sS'enjoy'
p32
F0.4226855255671827
sS'veritable'
p33
F3.5347001258279263
sS'monotonous'
p34
F-5.695540907854593
sS'tired'
p35
F-2.462976430022617
sS'consistent'
p36
F4.222884517045742
sS'depraved'
p37
F3.5347001258279263
sS'fabulous'
p38
F0.4197799585359289
sS'valiant'
p39
F4.222884517045742
sS'faithful'
p40
F5.136185710071532
sS'loathing'
p41
F-5.695540907854593
sS'errors'
p42
F-1.484225747703133
sS'ruthless'
p43
F3.5347001258279263
sS'liberty'
p44
F-5.695540907854593
sS'bonuses'
p45
F0.7030540266806149
sS'toll'
p46
F-5.695540907854593
sS'improperly'
p47
F-5.695540907854593
sS'stooges'
p48
F4.222884517045742
sS'hero'
p49
F-1.0804203910133334
sS'fissures'
p50
F3.5347001258279263
sS'shriek'
p51
F-5.695540907854593
sS'kudos'
p52
F5.923553745709347
sS'uplifting'
p53
F4.626689873735542
sS'smoke'
p54
F4.626689873735542
sS'lonesome'
p55
F-5.695540907854593
sS'anarchist'
p56
F-5.695540907854593
sS'suitable'
p57
F4.222884517045742
sS'intrigue'
p58
F3.5347001258279263
sS'criticism'
p59
F0.5210651932302721
sS'golden'
p60
F4.9135410362932355
sS'fantastic'
p61
F1.8545944346338368
sS'secure'
p62
F-5.695540907854593
sS'spooky'
p63
F5.136185710071532
sS'loveless'
p64
F-5.695540907854593
sS'cheats'
p65
F-5.695540907854593
sS'stern'
p66
F4.222884517045742
sS'scarier'
p67
F-5.695540907854593
sS'plot'
p68
F-0.684049339471364
sS'catchy'
p69
F3.5347001258279263
sS'best-selling'
p70
F-5.695540907854593
sS'ploy'
p71
F3.5347001258279263
sS'negative'
p72
F-1.3672715535710267
sS'cannibal'
p73
F3.5347001258279263
sS'insult'
p74
F-6.383725299072409
sS'calm'
p75
F3.5347001258279263
sS'recommend'
p76
F0.9765152054755897
sS'strike'
p77
F-1.0804203910133332
sS'leaky'
p78
F3.5347001258279263
sS'slaughtered'
p79
F-5.695540907854593
sS'holy'
p80
F0.011569356894283017
sS'detracts'
p81
F3.5347001258279263
sS'naive'
p82
F-0.6766150343235332
sS'phony'
p83
F-1.0804203910133332
sS'award'
p84
F0.9903200392137664
sS'hurt'
p85
F-1.0804203910133334
sS'grief'
p86
F3.5347001258279263
sS'sobering'
p87
F4.222884517045742
sS'defeated'
p88
F-5.695540907854593
sS'excellent'
p89
F5.64027620275228
sS'immature'
p90
F-5.695540907854593
sS'abundance'
p91
F3.5347001258279263
sS'taunts'
p92
F-5.695540907854593
sS'famed'
p93
F3.5347001258279263
sS'work'
p94
F0.8302617488672757
sS'worn'
p95
F-6.787530655762209
sS'regrets'
p96
F3.5347001258279263
sS'elegantly'
p97
F3.5347001258279263
sS'fresher'
p98
F3.5347001258279263
sS'unreadable'
p99
F-5.695540907854593
sS'unforgettable'
p100
F0.011569356894283017
sS'preferably'
p101
F3.5347001258279263
sS'recovery'
p102
F3.5347001258279263
sS'farce'
p103
F0.011569356894283017
sS'keen'
p104
F4.222884517045742
sS'complaining'
p105
F-2.172410138920949
sS'vagrant'
p106
F-5.695540907854593
sS'damage'
p107
F-0.392235999795517
sS'faults'
p108
F-1.0804203910133334
sS'hot'
p109
F-0.6757868837846948
sS'disappoint'
p110
F4.626689873735542
sS'dignified'
p111
F4.222884517045742
sS'badly'
p112
F-1.9937215840391223
sS'fever'
p113
F3.5347001258279263
sS'beauty'
p114
F0.12122412355301172
sS'mess'
p115
F-2.172410138920949
sS'vicious'
p116
F-1.0804203910133334
sS'wrong'
p117
F-0.9934847056560296
sS'overdone'
p118
F4.222884517045742
sS'misfit'
p119
F-1.0804203910133332
sS'meaningful'
p120
F-0.392235999795517
sS'splendid'
p121
F4.9135410362932355
sS'effective'
p122
F1.1079643497537452
sS'wins'
p123
F-6.383725299072409
sS'appreciate'
p124
F0.2984205194519764
sS'fictional'
p125
F4.222884517045742
sS'overtakes'
p126
F-5.695540907854593
sS'greed'
p127
F3.5347001258279263
sS'innovative'
p128
F4.9135410362932355
sS'fidelity'
p129
F4.9135410362932355
sS'destroyer'
p130
F3.5347001258279263
sS'better'
p131
F0.29062006456397577
sS'tramp'
p132
F-1.0804203910133332
sS'drawback'
p133
F4.222884517045742
sS'workable'
p134
F3.5347001258279263
sS'whips'
p135
F4.222884517045742
sS'admirable'
p136
F3.5347001258279263
sS'pleasurable'
p137
F3.5347001258279263
sS'undercut'
p138
F-5.695540907854593
sS'grievous'
p139
F3.5347001258279263
sS'weakness'
p140
F3.5347001258279263
sS'safe'
p141
F-1.0804203910133332
sS'stuttering'
p142
F3.5347001258279263
sS'break'
p143
F-1.0804203910133332
sS'disreputable'
p144
F-5.695540907854593
sS'rocky'
p145
F3.5347001258279263
sS'clumsy'
p146
F-5.695540907854593
sS'reasonably'
p147
F5.136185710071532
sS'explode'
p148
F3.5347001258279263
sS'victory'
p149
F3.5347001258279263
sS'reasonable'
p150
F-5.695540907854593
sS'addicted'
p151
F3.5347001258279263
sS'luck'
p152
F-5.695540907854593
sS'stealing'
p153
F-1.0804203910133334
sS'dawn'
p154
F-1.7686047822311495
sS'fraught'
p155
F-6.383725299072409
sS'encourage'
p156
F4.222884517045742
sS'tops'
p157
F-5.695540907854593
sS'lawless'
p158
F-5.695540907854593
sS'revenge'
p159
F-1.0804203910133334
sS'free'
p160
F-1.3672715535710267
sS'masterpiece'
p161
F5.605440556055026
sS'struggle'
p162
F-0.6757868837846948
sS'mistress'
p163
F3.5347001258279263
sS'maniac'
p164
F4.222884517045742
sS'inexpensive'
p165
F-1.0804203910133332
sS'flawless'
p166
F5.605440556055026
sS'disturbed'
p167
F-1.0804203910133334
sS'hopeless'
p168
F-6.787530655762209
sS'tempting'
p169
F-5.695540907854593
sS'loud'
p170
F3.5347001258279263
sS'naughty'
p171
F3.5347001258279263
sS'daunting'
p172
F3.5347001258279263
sS'lovably'
p173
F3.5347001258279263
sS'lovable'
p174
F3.5347001258279263
sS'jealous'
p175
F3.5347001258279263
sS'downside'
p176
F3.5347001258279263
sS'clarity'
p177
F0.7626046867262205
sS'masterfully'
p178
F3.5347001258279263
sS'revival'
p179
F3.5347001258279263
sS'rejects'
p180
F3.5347001258279263
sS'sarcasm'
p181
F-5.695540907854593
sS'top'
p182
F0.4587164497115678
sS'outstandingly'
p183
F4.222884517045742
sS'twisted'
p184
F-0.392235999795517
sS'fiction'
p185
F0.3040018946768125
sS'plentiful'
p186
F4.626689873735542
sS'master'
p187
F-0.9265074385139508
sS'wildly'
p188
F3.5347001258279263
sS'bitter'
p189
F-6.383725299072409
sS'insightful'
p190
F4.222884517045742
sS'murder'
p191
F-1.0804203910133334
sS'horrendously'
p192
F-5.695540907854593
sS'fanatical'
p193
F3.5347001258279263
sS'happily'
p194
F3.5347001258279263
sS'leaking'
p195
F-5.695540907854593
sS'wisdom'
p196
F-5.695540907854593
sS'inarticulate'
p197
F3.5347001258279263
sS'wasted'
p198
F-1.5899162273493224
sS'peculiar'
p199
F4.222884517045742
sS'rebuff'
p200
F3.5347001258279263
sS'peril'
p201
F3.5347001258279263
sS'cruelly'
p202
F-5.695540907854593
sS'rampage'
p203
F-5.695540907854593
sS'elegant'
p204
F3.5347001258279263
sS'idle'
p205
F-5.695540907854593
sS'silly'
p206
F-1.9937215840391223
sS'boil'
p207
F-5.695540907854593
sS'deserving'
p208
F5.318174543521875
sS'spoiled'
p209
F-2.329623369988848
sS'devious'
p210
F3.5347001258279263
sS'desperate'
p211
F-1.0804203910133332
sS'far-fetched'
p212
F3.5347001258279263
sS'modern'
p213
F1.213213871460628
sS'taint'
p214
F3.5347001258279263
sS'unaffected'
p215
F3.5347001258279263
sS'spade'
p216
F-1.0804203910133332
sS'genuine'
p217
F-1.0804203910133332
sS'gripe'
p218
F-0.392235999795517
sS'isolated'
p219
F-1.0804203910133332
sS'elegance'
p220
F3.5347001258279263
sS'recommended'
p221
F2.4934259557942826
sS'amusing'
p222
F3.5347001258279263
sS'effectiveness'
p223
F3.5347001258279263
sS'clunky'
p224
F-1.0804203910133332
sS'inexcusably'
p225
F-6.383725299072409
sS'thrilled'
p226
F3.5347001258279263
sS'object'
p227
F4.626689873735542
sS'clears'
p228
F-5.695540907854593
sS'unorthodox'
p229
F3.5347001258279263
sS'inconsistency'
p230
F-5.695540907854593
sS'morality'
p231
F4.9135410362932355
sS'devastating'
p232
F3.5347001258279263
sS'reputation'
p233
F-2.7810896196769375
sS'entertaining'
p234
F7.262657480156049
sS'annoyed'
p235
F3.5347001258279263
sS'incomplete'
p236
F-6.383725299072409
sS'marvel'
p237
F3.5347001258279263
sS'inspire'
p238
F3.5347001258279263
sS'brilliance'
p239
F3.5347001258279263
sS'dupe'
p240
F-5.695540907854593
sS'hazy'
p241
F-5.695540907854593
sS'queer'
p242
F3.5347001258279263
sS'lethal'
p243
F-5.695540907854593
sS'cheaply'
p244
F-5.695540907854593
sS'enjoyed'
p245
F0.5270205162638313
sS'painfully'
p246
F3.5347001258279263
sS'spite'
p247
F-7.4790153255485405
sS'guidance'
p248
F-5.695540907854593
sS'unskilled'
p249
F-5.695540907854593
sS'bust'
p250
F-5.695540907854593
sS'rich'
p251
F-3.456899385366279
sS'adequate'
p252
F-1.484225747703133
sS'continuity'
p253
F-1.7710769102608266
sS'colorful'
p254
F4.626689873735542
sS'hostility'
p255
F-5.695540907854593
sS'smut'
p256
F-5.695540907854593
sS'denounce'
p257
F-5.695540907854593
sS'foremost'
p258
F4.626689873735542
sS'criticized'
p259
F-6.383725299072409
sS'nasty'
p260
F-0.392235999795517
sS'overbearing'
p261
F3.5347001258279263
sS'nicely'
p262
F4.9135410362932355
sS'idiotic'
p263
F-6.383725299072409
sS'succumb'
p264
F-5.695540907854593
sS'bad'
p265
F-1.9239979823985653
sS'stunningly'
p266
F3.5347001258279263
sS'boring'
p267
F-1.9952137430219845
sS'ruins'
p268
F-2.459261301478643
sS'unworthy'
p269
F-1.0804203910133332
sS'disaster'
p270
F0.014869635462798682
sS'fair'
p271
F-0.5702605462333202
sS'inept'
p272
F-7.074381818319902
sS'beg'
p273
F-5.695540907854593
sS'unexpectedly'
p274
F-0.392235999795517
sS'corrupt'
p275
F-5.695540907854593
sS'disturbing'
p276
F6.010489431066651
sS'best'
p277
F0.42778017446919847
sS'inappropriate'
p278
F3.5347001258279263
sS'unable'
p279
F-5.695540907854593
sS'misguided'
p280
F-6.383725299072409
sS'lazy'
p281
F-6.787530655762209
sS'confusion'
p282
F-1.0804203910133334
sS'weak'
p283
F-2.513982990773469
sS'devout'
p284
F3.5347001258279263
sS'disservice'
p285
F3.5347001258279263
sS'downgrade'
p286
F-5.695540907854593
sS'pity'
p287
F-3.4272841837992583
sS'disdain'
p288
F-5.695540907854593
sS'fault'
p289
F-6.383725299072409
sS'dissapointed'
p290
F3.5347001258279263
sS'disastrous'
p291
F-1.0804203910133332
sS'exceeds'
p292
F3.5347001258279263
sS'contribution'
p293
F-0.392235999795517
sS'prefers'
p294
F-5.695540907854593
sS'tough'
p295
F5.318174543521875
sS'epidemic'
p296
F3.5347001258279263
sS'matte'
p297
F3.5347001258279263
sS'lowly'
p298
F-5.695540907854593
sS'villains'
p299
F-0.1671191979875441
sS'trust'
p300
F4.222884517045742
sS'comical'
p301
F-1.0804203910133332
sS'outdone'
p302
F3.5347001258279263
sS'positively'
p303
F-5.695540907854593
sS'incomparable'
p304
F3.5347001258279263
sS'condemned'
p305
F-1.0804203910133332
sS'charisma'
p306
F3.5347001258279263
sS'snappy'
p307
F4.626689873735542
sS'lovely'
p308
F0.4197799585359289
sS'leech'
p309
F-5.695540907854593
sS'obese'
p310
F-1.0804203910133332
sS'easy'
p311
F-0.6766150343235332
sS'doubts'
p312
F4.222884517045742
sS'worked'
p313
F-0.8577757172350375
sS'haters'
p314
F3.5347001258279263
sS'unpopular'
p315
F-5.695540907854593
sS'gritty'
p316
F4.626689873735542
sS'tank'
p317
F-5.695540907854593
sS'sly'
p318
F-5.695540907854593
sS'gentle'
p319
F3.5347001258279263
sS'ugly'
p320
F-2.459261301478643
sS'pitiable'
p321
F-6.383725299072409
sS'mistake'
p322
F-1.0804203910133332
sS'cons'
p323
F3.5347001258279263
sS'well-balanced'
p324
F3.5347001258279263
sS'whine'
p325
F-5.695540907854593
sS'sting'
p326
F3.5347001258279263
sS'dazzled'
p327
F3.5347001258279263
sS'shame'
p328
F-0.8577757172350375
sS'creepy'
p329
F0.9903200392137664
sS'exile'
p330
F3.5347001258279263
sS'tremendously'
p331
F3.5347001258279263
sS'trusted'
p332
F3.5347001258279263
sS'damaged'
p333
F-2.172410138920949
sS'complex'
p334
F1.3953689142253909
sS'split'
p335
F-0.392235999795517
sS'unfortunate'
p336
F-1.1980647015533121
sS'survival'
p337
F-1.0804203910133334
sS'fairly'
p338
F-0.7623072013590125
sS'effortlessly'
p339
F3.5347001258279263
sS'misery'
p340
F-5.695540907854593
sS'rail'
p341
F3.5347001258279263
sS'evil'
p342
F-0.9751708693064506
sS'delight'
p343
F4.626689873735542
sS'dispirited'
p344
F-5.695540907854593
sS'groundbreaking'
p345
F4.9135410362932355
sS'positives'
p346
F3.5347001258279263
sS'haggard'
p347
F3.5347001258279263
sS'stupendous'
p348
F3.5347001258279263
sS'forceful'
p349
F3.5347001258279263
sS'humble'
p350
F-5.695540907854593
sS'suffering'
p351
F-2.059171073332817
sS'greatest'
p352
F5.723084866595005
sS'incapable'
p353
F-5.695540907854593
sS'mockeries'
p354
F-5.695540907854593
sS'plight'
p355
F-3.151160821240433
sS'beloved'
p356
F-0.392235999795517
sS'prison'
p357
F3.5347001258279263
sS'pitiful'
p358
F-1.484225747703133
sS'joke'
p359
F-5.695540907854593
sS'mocked'
p360
F-5.695540907854593
sS'knock'
p361
F-5.695540907854593
sS'breaks'
p362
F-1.7686047822311495
sS'bungling'
p363
F-5.695540907854593
sS'bastards'
p364
F-5.695540907854593
sS'unlikely'
p365
F3.5347001258279263
sS'burns'
p366
F4.9135410362932355
sS'advanced'
p367
F4.222884517045742
sS'vanity'
p368
F-5.695540907854593
sS'dignity'
p369
F3.5347001258279263
sS'brutality'
p370
F4.222884517045742
sS'gifted'
p371
F4.626689873735542
sS'unnecessary'
p372
F-5.695540907854593
sS'unsuspecting'
p373
F-6.383725299072409
sS'overrated'
p374
F-1.0804203910133332
sS'lapses'
p375
F-5.695540907854593
sS'invaluable'
p376
F3.5347001258279263
sS'right'
p377
F0.2099050811212218
sS'successfully'
p378
F0.011569356894283017
sS'deaf'
p379
F3.5347001258279263
sS'dead'
p380
F-0.6289541413252434
sS'revel'
p381
F-5.695540907854593
sS'displeasure'
p382
F-5.695540907854593
sS'bore'
p383
F3.5347001258279263
sS'confusing'
p384
F-2.172410138920949
sS'congratulate'
p385
F4.222884517045742
sS'humor'
p386
F-0.3876896168720634
sS'phenomenal'
p387
F5.318174543521875
sS'creative'
p388
F5.318174543521875
sS'witty'
p389
F1.3084332288680873
sS'adorable'
p390
F-0.392235999795517
sS'betrayal'
p391
F-0.392235999795517
sS'burn'
p392
F-5.695540907854593
sS'blackmail'
p393
F-5.695540907854593
sS'confrontation'
p394
F3.5347001258279263
sS'mediocrity'
p395
F3.5347001258279263
sS'memorable'
p396
F6.660678699022033
sS'insanity'
p397
F-1.0804203910133332
sS'super'
p398
F-0.3889357212270014
sS'trophy'
p399
F3.5347001258279263
sS'attacks'
p400
F4.222884517045742
sS'cliche'
p401
F-5.695540907854593
sS'despair'
p402
F3.5347001258279263
sS'cherish'
p403
F3.5347001258279263
sS'improvement'
p404
F-0.6766150343235332
sS'lacked'
p405
F0.011569356894283017
sS'primitive'
p406
F3.5347001258279263
sS'sob'
p407
F-5.695540907854593
sS'overshadow'
p408
F-5.695540907854593
sS'delighted'
p409
F-5.695540907854593
sS'lies'
p410
F4.9135410362932355
sS'finely'
p411
F3.5347001258279263
sS'balanced'
p412
F5.318174543521875
sS'strangely'
p413
F-1.7686047822311495
sS'amazingly'
p414
F-0.3889357212270014
sS'support'
p415
F2.242190867405516
sS'illustrious'
p416
F3.5347001258279263
sS'bloodthirsty'
p417
F-5.695540907854593
sS'stuck'
p418
F-2.5806207405625954
sS'greatness'
p419
F-1.0804203910133332
sS'happy'
p420
F-1.0804203910133334
sS'heal'
p421
F3.5347001258279263
sS'forgetful'
p422
F-1.0804203910133332
sS'failure'
p423
F-5.695540907854593
sS'talents'
p424
F0.9903200392137664
sS'understandable'
p425
F4.222884517045742
sS'heartwarming'
p426
F3.5347001258279263
sS'bargain'
p427
F0.7030540266806149
sS'ruined'
p428
F-2.7810896196769375
sS'nicest'
p429
F3.5347001258279263
sS'torturing'
p430
F-5.695540907854593
sS'glaringly'
p431
F-5.695540907854593
sS'horrifying'
p432
F4.222884517045742
sS'propaganda'
p433
F-0.392235999795517
sS'panicky'
p434
F3.5347001258279263
sS'respite'
p435
F-5.695540907854593
sS'promises'
p436
F-6.383725299072409
sS'disgrace'
p437
F3.5347001258279263
sS'classic'
p438
F0.48035080642129613
sS'fury'
p439
F0.011569356894283017
sS'upset'
p440
F-5.695540907854593
sS'proven'
p441
F0.2984205194519764
sS'sticky'
p442
F-5.695540907854593
sS'proves'
p443
F0.5250294802428116
sS'tarnished'
p444
F-5.695540907854593
sS'acclaimed'
p445
F-5.695540907854593
sS'believable'
p446
F1.0369152751154103
sS'mediocre'
p447
F-1.1673560763706368
sS'annoying'
p448
F-0.8577757172350375
sS'levity'
p449
F3.5347001258279263
sS'heartbreakingly'
p450
F3.5347001258279263
sS'dying'
p451
F-1.0804203910133332
sS'successful'
p452
F-1.0804203910133332
sS'evasive'
p453
F3.5347001258279263
sS'enemies'
p454
F-5.695540907854593
sS'messing'
p455
F-5.695540907854593
sS'welcome'
p456
F0.011569356894283017
sS'convincing'
p457
F5.828334388301887
sS'polite'
p458
F-6.383725299072409
sS'fell'
p459
F-1.7686047822311495
sS'warp'
p460
F-5.695540907854593
sS'persecution'
p461
F-1.0804203910133332
sS'scratchy'
p462
F-6.787530655762209
sS'died'
p463
F-6.383725299072409
sS'faster'
p464
F-1.0804203910133332
sS'loyal'
p465
F4.222884517045742
sS'warm'
p466
F4.9135410362932355
sS'restored'
p467
F0.8569669791799974
sS'overdue'
p468
F3.5347001258279263
sS'remarkable'
p469
F0.011569356894283017
sS'leads'
p470
F0.3454306053290784
sS'jarring'
p471
F-1.7686047822311495
sS'remarkably'
p472
F-1.484225747703133
sS'abundant'
p473
F3.5347001258279263
sS'empathize'
p474
F-1.0804203910133332
sS'suicide'
p475
F-1.7686047822311495
sS'disgusting'
p476
F-6.383725299072409
sS'amaze'
p477
F3.5347001258279263
sS'terror'
p478
F-1.0804203910133332
sS'suffered'
p479
F-3.017807761206664
sS'jerk'
p480
F3.5347001258279263
sS'sloppy'
p481
F-1.484225747703133
sS'mourn'
p482
F-5.695540907854593
sS'trouble'
p483
F-1.0804203910133332
sS'cool'
p484
F0.015974601846129016
sS'dim'
p485
F-6.383725299072409
sS'impressive'
p486
F5.828334388301887
sS'die'
p487
F0.7030540266806149
sS'fragile'
p488
F3.5347001258279263
sS'cloudy'
p489
F-5.695540907854593
sS'engrossing'
p490
F4.626689873735542
sS'excellence'
p491
F4.626689873735542
sS'spiritual'
p492
F4.222884517045742
sS'brave'
p493
F4.626689873735542
sS'regret'
p494
F0.2984205194519764
sS'bravo'
p495
F4.626689873735542
sS'repetitive'
p496
F-6.383725299072409
sS'comforting'
p497
F3.5347001258279263
sS'helpless'
p498
F-6.787530655762209
sS'rough'
p499
F-0.6766150343235332
sS'curse'
p500
F-6.383725299072409
sS'stressful'
p501
F-5.695540907854593
sS'stately'
p502
F-5.695540907854593
sS'jeopardy'
p503
F-5.695540907854593
sS'thicker'
p504
F-5.695540907854593
sS'suspect'
p505
F-2.172410138920949
sS'freaks'
p506
F-6.383725299072409
sS'falling'
p507
F-0.570924554677344
sS'appeal'
p508
F3.5347001258279263
sS'supporting'
p509
F2.1980423436490275
sS'unsure'
p510
F-5.695540907854593
sS'nemesis'
p511
F4.222884517045742
sS'crippled'
p512
F-7.074381818319902
sS'momentous'
p513
F3.5347001258279263
sS'merriment'
p514
F-5.695540907854593
sS'standout'
p515
F5.318174543521875
sS'redemption'
p516
F4.222884517045742
sS'brilliant'
p517
F1.283687884207654
sS'guilty'
p518
F-1.7686047822311495
sS'exploitation'
p519
F-6.383725299072409
sS'accomplished'
p520
F3.5347001258279263
sS'patriotic'
p521
F3.5347001258279263
sS'priceless'
p522
F4.626689873735542
sS'weird'
p523
F-0.392235999795517
sS'stew'
p524
F-5.695540907854593
sS'gorgeously'
p525
F3.5347001258279263
sS'breathtaking'
p526
F5.136185710071532
sS'dick'
p527
F0.2984205194519764
sS'insolent'
p528
F3.5347001258279263
sS'humour'
p529
F5.318174543521875
sS'problematic'
p530
F-1.0804203910133332
sS'prefer'
p531
F0.011569356894283017
sS'bloody'
p532
F3.5347001258279263
sS'marvelous'
p533
F0.1687825879621812
sS'flexibility'
p534
F-1.0804203910133332
sS'fake'
p535
F-6.383725299072409
sS'smallish'
p536
F3.5347001258279263
sS'crisis'
p537
F-0.392235999795517
sS'vivid'
p538
F5.136185710071532
sS'positive'
p539
F-1.0804203910133332
sS'angry'
p540
F-0.6766150343235332
sS'wonderfully'
p541
F5.318174543521875
sS'marginally'
p542
F3.5347001258279263
sS'loving'
p543
F-1.0804203910133334
sS'frets'
p544
F-5.695540907854593
sS'afford'
p545
F-7.297026492098198
sS'dismal'
p546
F-6.787530655762209
sS'virtue'
p547
F-1.0804203910133332
sS'savior'
p548
F-5.695540907854593
sS'scratches'
p549
F-6.383725299072409
sS'deformed'
p550
F-5.695540907854593
sS'drags'
p551
F-5.695540907854593
sS'batty'
p552
F3.5347001258279263
sS'stimulating'
p553
F-5.695540907854593
sS'geeky'
p554
F-1.0804203910133332
sS'deservedly'
p555
F4.222884517045742
sS'dedicated'
p556
F4.222884517045742
sS'trump'
p557
F-5.695540907854593
sS'downfall'
p558
F-5.695540907854593
sS'awesome'
p559
F0.9301615325610529
sS'confused'
p560
F0.7030540266806149
sS'provoke'
p561
F3.5347001258279263
sS'stole'
p562
F-1.0804203910133332
sS'disliked'
p563
F3.5347001258279263
sS'fortunately'
p564
F0.011569356894283017
sS'meager'
p565
F-6.383725299072409
sS'strikingly'
p566
F-1.0804203910133332
sS'misleading'
p567
F0.011569356894283017
sS'pure'
p568
F-1.0804203910133334
sS'guarantee'
p569
F3.5347001258279263
sS'irascible'
p570
F4.222884517045742
sS'unbelievable'
p571
F-1.484225747703133
sS'mar'
p572
F3.5347001258279263
sS'paramount'
p573
F-0.392235999795517
sS'critics'
p574
F-0.6757868837846948
sS'begging'
p575
F-5.695540907854593
sS'praiseworthy'
p576
F3.5347001258279263
sS'disgusted'
p577
F-5.695540907854593
sS'fascism'
p578
F-5.695540907854593
sS'heartbreaking'
p579
F3.5347001258279263
sS'mad'
p580
F-2.172410138920949
sS'improving'
p581
F-5.695540907854593
sS'destructive'
p582
F-5.695540907854593
sS'filthy'
p583
F-5.695540907854593
sS'shockingly'
p584
F-6.787530655762209
sS'unbelievably'
p585
F3.5347001258279263
sS'stress'
p586
F4.222884517045742
sS'succeeded'
p587
F4.626689873735542
sS'cute'
p588
F0.620248837650271
sS'breaking'
p589
F4.222884517045742
sS'noteworthy'
p590
F4.626689873735542
sS'shaky'
p591
F3.5347001258279263
sS'accolades'
p592
F3.5347001258279263
sS'shake'
p593
F-6.383725299072409
sS'cold'
p594
F5.318174543521875
sS'unlucky'
p595
F-6.383725299072409
sS'swank'
p596
F-1.484225747703133
sS'thank'
p597
F0.5210651932302721
sS'lackluster'
p598
F-6.787530655762209
sS'interesting'
p599
F0.3051244385286812
sS'troubles'
p600
F3.5347001258279263
sS'amazing'
p601
F0.5666247733504536
sS'attraction'
p602
F-6.787530655762209
sS'suspicion'
p603
F-5.695540907854593
sS'celebrate'
p604
F-1.0804203910133332
sS'troubled'
p605
F4.9135410362932355
sS'undermines'
p606
F4.222884517045742
sS'abusive'
p607
F-6.383725299072409
sS'lonely'
p608
F-2.462976430022617
sS'garbage'
p609
F-5.695540907854593
sS'devastated'
p610
F-1.0804203910133332
sS'killer'
p611
F-0.1671191979875441
sS'sarcastic'
p612
F3.5347001258279263
sS'hale'
p613
F3.5347001258279263
sS'wealthy'
p614
F-7.8839256486216716
sS'killed'
p615
F-1.7710769102608266
sS'first-rate'
p616
F0.011569356894283017
sS'realistic'
p617
F6.616246690513129
sS'outrageously'
p618
F-5.695540907854593
sS'careless'
p619
F-5.695540907854593
sS'adore'
p620
F-5.695540907854593
sS'revere'
p621
F3.5347001258279263
sS'breakthrough'
p622
F3.5347001258279263
sS'richly'
p623
F3.5347001258279263
sS'obsession'
p624
F3.5347001258279263
sS'infuriated'
p625
F-5.695540907854593
sS'irony'
p626
F-1.0804203910133332
sS'boundless'
p627
F-5.695540907854593
sS'trauma'
p628
F-5.695540907854593
sS'illogical'
p629
F-5.695540907854593
sS'dominate'
p630
F3.5347001258279263
sS'correct'
p631
F4.222884517045742
sS'monster'
p632
F-0.12613801358569288
sS'self-determination'
p633
F3.5347001258279263
sS'loyalty'
p634
F-1.0804203910133332
sS'disrespect'
p635
F-0.392235999795517
sS'complicated'
p636
F4.9135410362932355
sS'skillfully'
p637
F3.5347001258279263
sS'ominous'
p638
F3.5347001258279263
sS'flare'
p639
F3.5347001258279263
sS'impose'
p640
F-6.383725299072409
sS'punk'
p641
F3.5347001258279263
sS'downsides'
p642
F3.5347001258279263
sS'honest'
p643
F-2.6819059752569383
sS'tangled'
p644
F-5.695540907854593
sS'quibble'
p645
F4.222884517045742
sS'neglect'
p646
F-5.695540907854593
sS'remorseful'
p647
F3.5347001258279263
sS'blind'
p648
F-1.0804203910133332
sS'impossibly'
p649
F-5.695540907854593
sS'outbursts'
p650
F-5.695540907854593
sS'omission'
p651
F3.5347001258279263
sS'impossible'
p652
F-1.5899162273493224
sS'cheesy'
p653
F-1.6389668507413542
sS'truthfully'
p654
F4.222884517045742
sS'silent'
p655
F-0.570924554677344
sS'murky'
p656
F-5.695540907854593
sS'thankless'
p657
F-1.0804203910133332
sS'tragic'
p658
F-1.0804203910133332
sS'bleak'
p659
F-5.695540907854593
sS'fiery'
p660
F3.5347001258279263
sS'brainy'
p661
F-1.7686047822311495
sS'appreciates'
p662
F4.222884517045742
sS'proving'
p663
F3.5347001258279263
sS'accurately'
p664
F-1.0804203910133332
sS'stylized'
p665
F4.222884517045742
sS'ridiculous'
p666
F-2.172410138920949
sS'appreciated'
p667
F4.222884517045742
sS'set-up'
p668
F3.5347001258279263
sS'petrified'
p669
F-5.695540907854593
sS'unfortunately'
p670
F-0.9374220378923765
sS'depressed'
p671
F-6.787530655762209
sS'rival'
p672
F-1.0804203910133332
sS'damned'
p673
F4.222884517045742
sS'sublime'
p674
F4.222884517045742
sS'disasterous'
p675
F3.5347001258279263
sS'troublesome'
p676
F-5.695540907854593
sS'unfairly'
p677
F4.222884517045742
sS'angel'
p678
F0.9903200392137664
sS'revolt'
p679
F-5.695540907854593
sS'premier'
p680
F4.222884517045742
sS'sad'
p681
F-0.38852087125154317
sS'conspiracy'
p682
F-0.392235999795517
sS'distorted'
p683
F3.5347001258279263
sS'anger'
p684
F3.5347001258279263
sS'insatiable'
p685
F-5.695540907854593
sS'sap'
p686
F-7.989175170328553
sS'efficient'
p687
F3.5347001258279263
sS'shocked'
p688
F-6.383725299072409
sS'terrific'
p689
F1.4407206318052104
sS'ideal'
p690
F4.222884517045742
sS'wretch'
p691
F-6.383725299072409
sS'destroy'
p692
F-5.695540907854593
sS'blunt'
p693
F3.5347001258279263
sS'ironically'
p694
F-6.383725299072409
sS'time-honored'
p695
F-5.695540907854593
sS'pain'
p696
F0.011569356894283017
sS'oppressive'
p697
F3.5347001258279263
sS'spewing'
p698
F3.5347001258279263
sS'falls'
p699
F-0.9470673309795642
sS'contrasty'
p700
F3.5347001258279263
sS'expertly'
p701
F4.222884517045742
sS'complaints'
p702
F0.011569356894283017
sS'hardships'
p703
F-5.695540907854593
sS'proud'
p704
F-1.0804203910133332
sS'steady'
p705
F-6.787530655762209
sS'gracefully'
p706
F-5.695540907854593
sS'helplessly'
p707
F-5.695540907854593
sS'watered-down'
p708
F3.5347001258279263
sS'well-rounded'
p709
F3.5347001258279263
sS'cheap'
p710
F-3.017807761206664
sS'merit'
p711
F3.5347001258279263
sS'bright'
p712
F5.318174543521875
sS'inconsistent'
p713
F-6.383725299072409
sS'crashing'
p714
F-5.695540907854593
sS'enthusiast'
p715
F3.5347001258279263
sS'slow'
p716
F-1.0804203910133334
sS'stormy'
p717
F3.5347001258279263
sS'genius'
p718
F0.5210651932302721
sS'treasure'
p719
F0.011569356894283017
sS'crime'
p720
F1.213213871460628
sS'fickle'
p721
F3.5347001258279263
sS'enthusiasm'
p722
F4.222884517045742
sS'oblique'
p723
F-5.695540907854593
sS'exaggeration'
p724
F3.5347001258279263
sS'hostage'
p725
F3.5347001258279263
sS'freezing'
p726
F-6.383725299072409
sS'simplistic'
p727
F-1.0804203910133332
sS'hedge'
p728
F-5.695540907854593
sS'womanizing'
p729
F-5.695540907854593
sS'gem'
p730
F0.30213564799595033
sS'keenly'
p731
F3.5347001258279263
sS'frustrated'
p732
F-6.383725299072409
sS'topnotch'
p733
F3.5347001258279263
sS'worried'
p734
F-1.0804203910133332
sS'joker'
p735
F4.222884517045742
sS'stupid'
p736
F-2.6819059752569383
sS'worries'
p737
F-1.0804203910133332
sS'unlicensed'
p738
F-5.695540907854593
sS'enthralled'
p739
F3.5347001258279263
sS'honesty'
p740
F3.5347001258279263
sS'fatefully'
p741
F3.5347001258279263
sS'famine'
p742
F-6.383725299072409
sS'gangster'
p743
F-1.484225747703133
sS'wonder'
p744
F-1.5899162273493224
sS'fails'
p745
F-1.0804203910133334
sS'satisfying'
p746
F4.626689873735542
sS'kid-friendly'
p747
F3.5347001258279263
sS'enough'
p748
F-0.4388032566078181
sS'altercation'
p749
F-5.695540907854593
sS'simplifying'
p750
F3.5347001258279263
sS'enjoys'
p751
F0.014869635462798682
sS'affordable'
p752
F3.5347001258279263
sS'useful'
p753
F3.5347001258279263
sS'fearless'
p754
F3.5347001258279263
sS'killing'
p755
F-0.6766150343235332
sS'blame'
p756
F-7.4790153255485405
sS'awards'
p757
F0.5210651932302721
sS'hurts'
p758
F-5.695540907854593
sS'menacing'
p759
F4.222884517045742
sS'talented'
p760
F0.30337916631777473
sS'crisper'
p761
F3.5347001258279263
sS'successes'
p762
F4.222884517045742
sS'gimmicks'
p763
F-1.0804203910133332
sS'quiet'
p764
F-0.392235999795517
sS'sketchy'
p765
F3.5347001258279263
sS'disappointment'
p766
F0.011569356894283017
sS'floundering'
p767
F-5.695540907854593
sS'shamefully'
p768
F-5.695540907854593
sS'madness'
p769
F-0.392235999795517
sS'spoil'
p770
F-2.172410138920949
sS'bizarre'
p771
F0.011569356894283017
sS'charismatic'
p772
F4.222884517045742
sS'runaway'
p773
F3.5347001258279263
sS'awsome'
p774
F3.5347001258279263
sS'caricature'
p775
F3.5347001258279263
sS'capable'
p776
F0.011569356894283017
sS'scandalous'
p777
F-5.695540907854593
sS'dependable'
p778
F3.5347001258279263
sS'peaceful'
p779
F3.5347001258279263
sS'misunderstandings'
p780
F-5.695540907854593
sS'devilish'
p781
F3.5347001258279263
sS'dead-on'
p782
F3.5347001258279263
sS'suspicions'
p783
F-5.695540907854593
sS'attentive'
p784
F-1.0804203910133332
sS'dropouts'
p785
F-6.383725299072409
sS'predicament'
p786
F-5.695540907854593
sS'handicapped'
p787
F3.5347001258279263
sS'cure'
p788
F-5.695540907854593
sS'promising'
p789
F-1.0804203910133334
sS'sub-par'
p790
F-2.172410138920949
sS'twists'
p791
F1.213213871460628
sS'hurting'
p792
F-5.695540907854593
sS'bias'
p793
F3.5347001258279263
sS'obnoxious'
p794
F-1.0804203910133332
sS'thrills'
p795
F4.626689873735542
sS'worry'
p796
F-1.7686047822311495
sS'dragging'
p797
F-5.695540907854593
sS'harsh'
p798
F-5.695540907854593
sS'belie'
p799
F4.222884517045742
sS'mobster'
p800
F3.5347001258279263
sS'poetic'
p801
F3.5347001258279263
sS'struggling'
p802
F-3.268805131780412
sS'pan'
p803
F-1.0804203910133332
sS'breakdown'
p804
F0.011569356894283017
sS'noble'
p805
F-2.172410138920949
sS'infuriatingly'
p806
F3.5347001258279263
sS'sickness'
p807
F4.222884517045742
sS'applaud'
p808
F3.5347001258279263
sS'refusal'
p809
F3.5347001258279263
sS'disadvantaged'
p810
F-5.695540907854593
sS'domineering'
p811
F3.5347001258279263
sS'delicate'
p812
F3.5347001258279263
sS'weep'
p813
F-5.695540907854593
sS'enchanting'
p814
F3.5347001258279263
sS'misdirection'
p815
F-5.695540907854593
sS'purposeful'
p816
F3.5347001258279263
sS'magical'
p817
F4.9135410362932355
sS'severe'
p818
F-5.695540907854593
sS'relief'
p819
F0.2984205194519764
sS'reward'
p820
F-5.695540907854593
sS'uncomplicated'
p821
F3.5347001258279263
sS'amazed'
p822
F5.136185710071532
sS'parody'
p823
F0.7030540266806149
sS'peace'
p824
F4.626689873735542
sS'slime'
p825
F3.5347001258279263
sS'valuable'
p826
F4.626689873735542
sS'violent'
p827
F-1.0804203910133334
sS'kill'
p828
F-1.5899162273493224
sS'inaudible'
p829
F-5.695540907854593
sS'blow'
p830
F-1.0804203910133332
sS'death'
p831
F-1.0804203910133334
sS'clueless'
p832
F3.5347001258279263
sS'complain'
p833
F-1.3030650647916289
sS'complements'
p834
F4.9135410362932355
sS'struck'
p835
F-7.074381818319902
sS'sucked'
p836
F3.5347001258279263
sS'joyful'
p837
F3.5347001258279263
sS'ambitious'
p838
F-5.695540907854593
sS'spectacular'
p839
F1.1079643497537452
sS'dark'
p840
F0.8984289658015018
sS'detract'
p841
F0.5210651932302721
sS'stunt'
p842
F0.2984205194519764
sS'glitches'
p843
F-5.695540907854593
sS'disappointed'
p844
F-0.27087656071156446
sS'grim'
p845
F3.5347001258279263
sS'bravery'
p846
F3.5347001258279263
sS'fortune'
p847
F-0.392235999795517
sS'stranger'
p848
F-6.383725299072409
sS'endorses'
p849
F3.5347001258279263
sS'miracle'
p850
F4.222884517045742
sS'oddly'
p851
F-0.6766150343235332
sS'benefit'
p852
F3.5347001258279263
sS'substandard'
p853
F-6.787530655762209
sS'pointlessly'
p854
F3.5347001258279263
sS'redeeming'
p855
F4.222884517045742
sS'wrongly'
p856
F-5.695540907854593
sS'prolific'
p857
F3.5347001258279263
sS'smitten'
p858
F-5.695540907854593
sS'critical'
p859
F-1.0804203910133334
sS'dies'
p860
F-7.4790153255485405
sS'apocalyptic'
p861
F3.5347001258279263
sS'zest'
p862
F3.5347001258279263
sS'intimate'
p863
F3.5347001258279263
sS'unusual'
p864
F5.472087496021257
sS'slaughter'
p865
F3.5347001258279263
sS'notably'
p866
F1.1079643497537452
sS'broken'
p867
F-1.7686047822311495
sS'exciting'
p868
F5.605440556055026
sS'subdued'
p869
F4.222884517045742
sS'favorite'
p870
F0.8626380450827917
sS'demonic'
p871
F3.5347001258279263
sS'masterpieces'
p872
F3.5347001258279263
sS'fertile'
p873
F3.5347001258279263
sS'flawed'
p874
F0.011569356894283017
sS'ruthlessly'
p875
F3.5347001258279263
sS'cursed'
p876
F-5.695540907854593
sS'lively'
p877
F4.222884517045742
sS'madden'
p878
F3.5347001258279263
sS'stark'
p879
F0.011569356894283017
sS'desert'
p880
F4.222884517045742
sS'lousy'
p881
F-6.787530655762209
sS'mindless'
p882
F-1.0804203910133332
sS'futile'
p883
F3.5347001258279263
sS'dictator'
p884
F3.5347001258279263
sS'immaculate'
p885
F3.5347001258279263
sS'impeccably'
p886
F3.5347001258279263
sS'regard'
p887
F-5.695540907854593
sS'sophisticated'
p888
F-0.392235999795517
sS'manipulative'
p889
F-1.0804203910133332
sS'bugs'
p890
F-5.695540907854593
sS'irreversible'
p891
F3.5347001258279263
sS'handsome'
p892
F-0.7935692284556397
sS'abused'
p893
F-5.695540907854593
sS'fraud'
p894
F3.5347001258279263
sS'romantic'
p895
F0.9961099404590446
sS'dirty'
p896
F-1.3672715535710267
sS'sleazy'
p897
F3.5347001258279263
sS'darker'
p898
F5.136185710071532
sS'fright'
p899
F-1.0804203910133332
sS'exhausted'
p900
F-5.695540907854593
sS'appalling'
p901
F-1.7686047822311495
sS'first-class'
p902
F4.222884517045742
sS'casualty'
p903
F-5.695540907854593
sS'tedious'
p904
F3.5347001258279263
sS'abyss'
p905
F4.222884517045742
sS'idiot'
p906
F3.5347001258279263
sS'selfishly'
p907
F-5.695540907854593
sS'unparalleled'
p908
F3.5347001258279263
sS'stumbles'
p909
F-6.383725299072409
sS'unneeded'
p910
F-5.695540907854593
sS'trash'
p911
F-1.0804203910133332
sS'disgraceful'
p912
F-5.695540907854593
sS'poor'
p913
F-6.720697973064597
sS'brash'
p914
F-1.0804203910133332
sS'blessing'
p915
F3.5347001258279263
sS'desolation'
p916
F3.5347001258279263
sS'seriousness'
p917
F3.5347001258279263
sS'important'
p918
F-0.07040768159722234
sS'tricky'
p919
F3.5347001258279263
sS'titillating'
p920
F3.5347001258279263
sS'hard-working'
p921
F-5.695540907854593
sS'diss'
p922
F3.5347001258279263
sS'liar'
p923
F-6.383725299072409
sS'vile'
p924
F-6.383725299072409
sS'beware'
p925
F-0.6766150343235332
sS'lack'
p926
F-2.331400510043771
sS'sunk'
p927
F-6.383725299072409
sS'thoughtful'
p928
F0.8569669791799974
sS'fairness'
p929
F3.5347001258279263
sS'reluctant'
p930
F-1.0804203910133332
sS'dreadful'
p931
F-1.7686047822311495
sS'homage'
p932
F0.2984205194519764
sS'ignorant'
p933
F-6.787530655762209
sS'fervor'
p934
F4.222884517045742
sS'scratch'
p935
F3.5347001258279263
sS'smile'
p936
F-0.392235999795517
sS'enjoying'
p937
F-0.392235999795517
sS'hideous'
p938
F-6.383725299072409
sS'worse'
p939
F-2.5806207405625954
sS'puzzled'
p940
F4.222884517045742
sS'fav'
p941
F3.5347001258279263
sS'fat'
p942
F-2.6819059752569383
sS'worst'
p943
F-2.3772842629871374
sS'fall'
p944
F-2.462976430022617
sS'awful'
p945
F-1.4853307140864636
sS'authentic'
p946
F4.9135410362932355
sS'heaven'
p947
F-0.392235999795517
sS'marvellous'
p948
F3.5347001258279263
sS'insufficiently'
p949
F-5.695540907854593
sS'undone'
p950
F-5.695540907854593
sS'conflicted'
p951
F4.222884517045742
sS'grateful'
p952
F3.5347001258279263
sS'preposterous'
p953
F-5.695540907854593
sS'amiss'
p954
F-6.383725299072409
sS'enhancement'
p955
F-5.695540907854593
sS'affectation'
p956
F3.5347001258279263
sS'hamper'
p957
F3.5347001258279263
sS'trick'
p958
F-6.787530655762209
sS'darkness'
p959
F5.136185710071532
sS'short-lived'
p960
F3.5347001258279263
sS'poisonous'
p961
F3.5347001258279263
sS'whimper'
p962
F-1.0804203910133332
sS'eminent'
p963
F3.5347001258279263
sS'crush'
p964
F-5.695540907854593
sS'turmoil'
p965
F-5.695540907854593
sS'uneven'
p966
F-0.8577757172350375
sS'strong'
p967
F1.2191701896781584
sS'tragedy'
p968
F0.011569356894283017
sS'creeps'
p969
F-5.695540907854593
sS'extraordinary'
p970
F0.5210651932302721
sS'exceptionally'
p971
F-2.282064905579678
sS'brutal'
p972
F-0.1671191979875441
sS'dashing'
p973
F4.222884517045742
sS'horrified'
p974
F3.5347001258279263
sS'gleeful'
p975
F4.222884517045742
sS'cowardly'
p976
F4.222884517045742
sS'hogs'
p977
F-5.695540907854593
sS'chunky'
p978
F-5.695540907854593
sS'flaws'
p979
F0.01652800376008122
sS'gorgeous'
p980
F0.1687825879621812
sS'mysterious'
p981
F-0.1671191979875441
sS'tacky'
p982
F-6.383725299072409
sS'injury'
p983
F-1.0804203910133332
sS'sincere'
p984
F3.5347001258279263
sS'flaw'
p985
F-1.484225747703133
sS'spoils'
p986
F3.5347001258279263
sS'one-sided'
p987
F4.9135410362932355
sS'instrumental'
p988
F4.222884517045742
sS'excuse'
p989
F-4.83190270695581
sS'doom'
p990
F-0.392235999795517
sS'glad'
p991
F0.8569669791799974
sS'sucks'
p992
F3.5347001258279263
sS'irritations'
p993
F3.5347001258279263
sS'taut'
p994
F5.472087496021257
sS'beautiful'
p995
F0.5984825793211557
sS'shark'
p996
F-5.695540907854593
sS'atrocious'
p997
F-5.695540907854593
sS'challenging'
p998
F4.626689873735542
sS'neglected'
p999
F-1.7686047822311495
sS'stinging'
p1000
F-5.695540907854593
sS'boycott'
p1001
F-5.695540907854593
sS'unbiased'
p1002
F3.5347001258279263
sS'sharp'
p1003
F2.4064398239986002
sS'lacks'
p1004
F-0.6766150343235332
sS'advantage'
p1005
F-1.9937215840391223
sS'awkward'
p1006
F4.626689873735542
sS'desperation'
p1007
F-5.695540907854593
sS'needy'
p1008
F-5.695540907854593
sS'comfort'
p1009
F-1.0804203910133332
sS'rapport'
p1010
F4.626689873735542
sS'hampered'
p1011
F-7.632928278047923
sS'heck'
p1012
F4.222884517045742
sS'reject'
p1013
F-5.695540907854593
sS'weaknesses'
p1014
F-5.695540907854593
sS'panoramic'
p1015
F3.5347001258279263
sS'bloom'
p1016
F0.5210651932302721
sS'fascinating'
p1017
F-0.3889357212270014
sS'malevolent'
p1018
F3.5347001258279263
sS'contrived'
p1019
F-5.695540907854593
sS'shortcomings'
p1020
F-1.0804203910133332
sS'shady'
p1021
F4.222884517045742
sS'crippling'
p1022
F-5.695540907854593
sS'bashing'
p1023
F3.5347001258279263
sS'deterioration'
p1024
F-5.695540907854593
sS'pleasure'
p1025
F5.318174543521875
sS'crafty'
p1026
F4.222884517045742
sS'heartfelt'
p1027
F4.626689873735542
sS'distortion'
p1028
F-5.695540907854593
sS'hell'
p1029
F-0.38976387176583976
sS'suffer'
p1030
F-7.989175170328553
sS'oblivious'
p1031
F-5.695540907854593
sS'tantalizingly'
p1032
F-5.695540907854593
sS'absence'
p1033
F-0.392235999795517
sS'ruining'
p1034
F-6.383725299072409
sS'finer'
p1035
F3.5347001258279263
sS'snobs'
p1036
F-6.383725299072409
sS'good'
p1037
F0.5742338461344011
sS'sucker'
p1038
F-5.695540907854593
sS'sweeping'
p1039
F4.626689873735542
sS'adventurous'
p1040
F-1.0804203910133332
sS'incoherent'
p1041
F-5.695540907854593
sS'mystery'
p1042
F1.3999152971488444
sS'desperately'
p1043
F-6.787530655762209
sS'refresh'
p1044
F3.5347001258279263
sS'shocking'
p1045
F4.9135410362932355
sS'disorganized'
p1046
F-1.0804203910133332
sS'exquisite'
p1047
F4.222884517045742
sS'harm'
p1048
F-5.695540907854593
sS'restless'
p1049
F3.5347001258279263
sS'needless'
p1050
F3.5347001258279263
sS'hard'
p1051
F-0.8863903449544782
sS'engaging'
p1052
F5.828334388301887
sS'vainly'
p1053
F-5.695540907854593
sS'missed'
p1054
F0.1687825879621812
sS'childish'
p1055
F-5.695540907854593
sS'deft'
p1056
F4.626689873735542
sS'enjoyment'
p1057
F0.5210651932302721
sS'misses'
p1058
F-1.0804203910133334
sS'dominated'
p1059
F3.5347001258279263
sS'paradise'
p1060
F-1.0804203910133332
sS'issue'
p1061
F-0.392235999795517
sS'expansive'
p1062
F3.5347001258279263
sS'bully'
p1063
F-1.0804203910133332
sS'pathetic'
p1064
F-1.484225747703133
sS'dirt'
p1065
F-3.4692740108947535
sS'pleasant'
p1066
F5.136185710071532
sS'difficulty'
p1067
F3.5347001258279263
sS'dire'
p1068
F-5.695540907854593
sS'entrancing'
p1069
F3.5347001258279263
sS'laughable'
p1070
F-7.297026492098198
sS'hapless'
p1071
F-0.392235999795517
sS'heroic'
p1072
F4.222884517045742
sS'revolutionary'
p1073
F4.222884517045742
sS'benefits'
p1074
F5.136185710071532
sS'terrible'
p1075
F-2.0240098491546994
sS'terribly'
p1076
F-1.7710769102608266
sS'prejudice'
p1077
F-0.392235999795517
sS'mercilessly'
p1078
F-5.695540907854593
sS'fallen'
p1079
F-1.0804203910133332
sS'bullies'
p1080
F-6.383725299072409
sS'brutally'
p1081
F-5.695540907854593
sS'fancy'
p1082
F-5.695540907854593
sS'barbarian'
p1083
F4.222884517045742
sS'unexpected'
p1084
F0.011569356894283017
sS'soapy'
p1085
F-5.695540907854593
sS'bland'
p1086
F3.5347001258279263
sS'miss'
p1087
F-0.07040768159722234
sS'unexplained'
p1088
F-5.695540907854593
sS'leading'
p1089
F-0.7931543784801817
sS'threatening'
p1090
F-5.695540907854593
sS'revive'
p1091
F3.5347001258279263
sS'flimsy'
p1092
F3.5347001258279263
sS'wonderful'
p1093
F1.300695964655928
sS'endearing'
p1094
F-0.392235999795517
sS'saint'
p1095
F3.5347001258279263
sS'pleasantly'
p1096
F4.9135410362932355
sS'merciless'
p1097
F-5.695540907854593
sS'trapped'
p1098
F-1.484225747703133
sS'excels'
p1099
F4.222884517045742
sS'malice'
p1100
F3.5347001258279263
sS'satirical'
p1101
F4.222884517045742
sS'boredom'
p1102
F-1.0804203910133332
sS'gruesome'
p1103
F4.222884517045742
sS'unrealistic'
p1104
F-7.074381818319902
sS'versatility'
p1105
F3.5347001258279263
sS'carnage'
p1106
F-1.0804203910133332
sS'throttle'
p1107
F3.5347001258279263
sS'lament'
p1108
F-5.695540907854593
sS'miseries'
p1109
F-5.695540907854593
sS'stall'
p1110
F3.5347001258279263
sS'risks'
p1111
F3.5347001258279263
sS'stale'
p1112
F3.5347001258279263
sS'sty'
p1113
F-6.787530655762209
sS'low-price'
p1114
F3.5347001258279263
sS'cleaner'
p1115
F4.222884517045742
sS'outstanding'
p1116
F1.1585040389259325
sS'illiterate'
p1117
F-5.695540907854593
sS'paltry'
p1118
F-5.695540907854593
sS'cumbersome'
p1119
F-5.695540907854593
sS'vulnerable'
p1120
F-2.172410138920949
sS'lie'
p1121
F-6.787530655762209
sS'cave'
p1122
F3.5347001258279263
sS'useless'
p1123
F-6.383725299072409
sS'state-of-the-art'
p1124
F3.5347001258279263
sS'charm'
p1125
F-0.392235999795517
sS'significant'
p1126
F-1.0804203910133334
sS'achievement'
p1127
F3.5347001258279263
sS'clear'
p1128
F2.8016536370549545
sS'charitable'
p1129
F-5.695540907854593
sS'seething'
p1130
F3.5347001258279263
sS'clean'
p1131
F1.6183459237788693
sS'barren'
p1132
F-5.695540907854593
sS'dragged'
p1133
F-1.0804203910133332
sS'despise'
p1134
F-5.695540907854593
sS'ugh'
p1135
F-5.695540907854593
sS'gold'
p1136
F4.9135410362932355
sS'flicker'
p1137
F3.5347001258279263
sS'top-notch'
p1138
F5.923553745709347
sS'malignant'
p1139
F-5.695540907854593
sS'defender'
p1140
F-5.695540907854593
sS'fine'
p1141
F1.89534645129496
sS'overwhelmed'
p1142
F-1.7686047822311495
sS'delinquent'
p1143
F-5.695540907854593
sS'paranoid'
p1144
F4.222884517045742
sS'nervous'
p1145
F0.011569356894283017
sS'ruin'
p1146
F0.2984205194519764
sS'grotesque'
p1147
F3.5347001258279263
sS'paranoia'
p1148
F4.222884517045742
sS'unhappy'
p1149
F-6.787530655762209
sS'grace'
p1150
F-0.1671191979875441
sS'failed'
p1151
F-6.383725299072409
sS'idiots'
p1152
F3.5347001258279263
sS'convoluted'
p1153
F4.222884517045742
sS'pretty'
p1154
F-1.9877181780095492
sS'credulous'
p1155
F3.5347001258279263
sS'indifference'
p1156
F-5.695540907854593
sS'villian'
p1157
F-0.38976387176583976
sS'prowess'
p1158
F4.626689873735542
sS'gains'
p1159
F-1.0804203910133332
sS'spurious'
p1160
F-5.695540907854593
sS'wreaks'
p1161
F-5.695540907854593
sS'famous'
p1162
F-1.0804203910133332
sS'courage'
p1163
F4.626689873735542
sS'frightening'
p1164
F4.626689873735542
sS'distraction'
p1165
F3.5347001258279263
sS'enemy'
p1166
F-5.695540907854593
sS'progressive'
p1167
F3.5347001258279263
sS'sacrificed'
p1168
F-5.695540907854593
sS'cry'
p1169
F4.9135410362932355
sS'cringe'
p1170
F-2.172410138920949
sS'relentless'
p1171
F3.5347001258279263
sS'insane'
p1172
F-1.7710769102608266
sS'dump'
p1173
F3.5347001258279263
sS'intelligence'
p1174
F3.5347001258279263
sS'dumb'
p1175
F-1.9258180132990477
sS'irredeemable'
p1176
F3.5347001258279263
sS'horrid'
p1177
F-0.392235999795517
sS'unsettling'
p1178
F4.222884517045742
sS'wow'
p1179
F-0.23502276872761876
sS'woo'
p1180
F4.222884517045742
sS'won'
p1181
F0.7030540266806149
sS'distraught'
p1182
F3.5347001258279263
sS'berserk'
p1183
F-1.0804203910133332
sS'compliment'
p1184
F5.318174543521875
sS'available'
p1185
F-0.3879867317109163
sS'balk'
p1186
F-5.695540907854593
sS'masterful'
p1187
F4.222884517045742
sS'poorer'
p1188
F-5.695540907854593
sS'succeed'
p1189
F-0.392235999795517
sS'fame'
p1190
F0.30213564799595033
sS'improved'
p1191
F-1.0804203910133332
sS'influential'
p1192
F3.5347001258279263
sS'offending'
p1193
F-5.695540907854593
sS'abysmally'
p1194
F-5.695540907854593
sS'adored'
p1195
F-1.0804203910133332
sS'improves'
p1196
F-6.383725299072409
sS'retarded'
p1197
F3.5347001258279263
sS'liked'
p1198
F0.8626380450827917
sS'distress'
p1199
F3.5347001258279263
sS'majesty'
p1200
F4.626689873735542
sS'drunk'
p1201
F-5.695540907854593
sS'sweet'
p1202
F-0.6111655450298388
sS'hollow'
p1203
F-1.7686047822311495
sS'improper'
p1204
F-6.787530655762209
sS'likes'
p1205
F-0.38976387176583976
sS'all-around'
p1206
F5.472087496021257
sS'expensive'
p1207
F-6.383725299072409
sS'decline'
p1208
F3.5347001258279263
sS'devil'
p1209
F4.9135410362932355
sS'mind-blowing'
p1210
F3.5347001258279263
sS'overlook'
p1211
F-1.7686047822311495
sS'dud'
p1212
F3.5347001258279263
sS'faithfully'
p1213
F4.626689873735542
sS'damn'
p1214
F4.626689873735542
sS'coarse'
p1215
F-5.695540907854593
sS'whoa'
p1216
F3.5347001258279263
sS'sweetheart'
p1217
F3.5347001258279263
sS'champion'
p1218
F-1.0804203910133332
sS'cruelty'
p1219
F-6.383725299072409
sS'well-made'
p1220
F4.9135410362932355
sS'pricey'
p1221
F3.5347001258279263
sS'rupture'
p1222
F3.5347001258279263
sS'intriguing'
p1223
F5.605440556055026
sS'stolen'
p1224
F-1.0804203910133332
sS'frozen'
p1225
F-5.695540907854593
sS'reliable'
p1226
F3.5347001258279263
sS'grainy'
p1227
F-8.394307222646795
sS'admire'
p1228
F4.626689873735542
sS'dusty'
p1229
F-5.695540907854593
sS'reliably'
p1230
F4.626689873735542
sS'fun'
p1231
F0.18459368177064325
sS'flees'
p1232
F-5.695540907854593
sS'shoddy'
p1233
F-1.7710769102608266
sS'costly'
p1234
F-5.695540907854593
sS'heroically'
p1235
F-5.695540907854593
sS'demon'
p1236
F-0.392235999795517
sS'rip'
p1237
F0.011569356894283017
sS'disappointing'
p1238
F0.30213564799595033
sS'frantic'
p1239
F3.5347001258279263
sS'beautifully'
p1240
F1.3084332288680873
sS'ready'
p1241
F-6.383725299072409
sS'anguish'
p1242
F-6.383725299072409
sS'funny'
p1243
F1.1336698473269173
sS'lengthy'
p1244
F3.5347001258279263
sS'kills'
p1245
F-1.7686047822311495
sS'butcher'
p1246
F3.5347001258279263
sS'madly'
p1247
F3.5347001258279263
sS'grand'
p1248
F-1.0804203910133334
sS'conflict'
p1249
F4.222884517045742
sS'fatty'
p1250
F3.5347001258279263
sS'bonus'
p1251
F2.242190867405516
sS'comprehensive'
p1252
F4.626689873735542
sS'overweight'
p1253
F-6.383725299072409
sS'haunting'
p1254
F5.723084866595005
sS'wholesome'
p1255
F3.5347001258279263
sS'timid'
p1256
F-1.7686047822311495
sS'infamous'
p1257
F3.5347001258279263
sS'picky'
p1258
F3.5347001258279263
sS'craven'
p1259
F-1.0804203910133332
sS'cheer'
p1260
F-5.695540907854593
sS'inspirational'
p1261
F3.5347001258279263
sS'savvy'
p1262
F3.5347001258279263
sS'appalled'
p1263
F3.5347001258279263
sS'grossly'
p1264
F-5.695540907854593
sS'alluring'
p1265
F3.5347001258279263
sS'chore'
p1266
F-5.695540907854593
sS'distracting'
p1267
F-1.9937215840391223
sS'eagerly'
p1268
F-5.695540907854593
sS'love'
p1269
F-0.2443902554724719
sS'dishonesty'
p1270
F-5.695540907854593
sS'superficial'
p1271
F3.5347001258279263
sS'hated'
p1272
F4.222884517045742
sS'vague'
p1273
F-5.695540907854593
sS'brand-new'
p1274
F3.5347001258279263
sS'grin'
p1275
F3.5347001258279263
sS'tormented'
p1276
F-0.1671191979875441
sS'impoverished'
p1277
F-2.172410138920949
sS'excited'
p1278
F0.011569356894283017
sS'hates'
p1279
F3.5347001258279263
sS'ridiculously'
p1280
F-6.787530655762209
sS'complaint'
p1281
F0.1687825879621812
sS'complains'
p1282
F-5.695540907854593
sS'lacking'
p1283
F-1.0804203910133334
sS'advocate'
p1284
F4.222884517045742
sS'tiring'
p1285
F3.5347001258279263
sS'redeem'
p1286
F4.222884517045742
sS'abound'
p1287
F5.472087496021257
sS'moody'
p1288
F0.9903200392137664
sS'skeptical'
p1289
F3.5347001258279263
sS'blemish'
p1290
F3.5347001258279263
sS'lost'
p1291
F-1.0804203910133332
sS'sincerely'
p1292
F-5.695540907854593
sS'ignore'
p1293
F-5.695540907854593
sS'popular'
p1294
F0.011569356894283017
sS'stylish'
p1295
F1.213213871460628
sS'hallmark'
p1296
F-5.695540907854593
sS'humorous'
p1297
F-1.0804203910133332
sS'magnificent'
p1298
F0.5210651932302721
sS'strongest'
p1299
F3.5347001258279263
sS'mighty'
p1300
F-1.7686047822311495
sS'accomplishment'
p1301
F3.5347001258279263
sS'pale'
p1302
F4.222884517045742
sS'savage'
p1303
F4.222884517045742
sS'culprit'
p1304
F-5.695540907854593
sS'pros'
p1305
F4.222884517045742
sS'modest'
p1306
F-0.392235999795517
sS'providence'
p1307
F4.222884517045742
sS'innovation'
p1308
F3.5347001258279263
sS'dismally'
p1309
F-6.383725299072409
sS'patient'
p1310
F3.5347001258279263
sS'hypocritical'
p1311
F-5.695540907854593
sS'benefactor'
p1312
F-5.695540907854593
sS'refused'
p1313
F3.5347001258279263
sS'zombie'
p1314
F5.136185710071532
sS'negatives'
p1315
F3.5347001258279263
sS'refuses'
p1316
F4.626689873735542
sS'taboo'
p1317
F3.5347001258279263
sS'obscured'
p1318
F-5.695540907854593
sS'intense'
p1319
F0.9903200392137664
sS'shine'
p1320
F0.2984205194519764
sS'faith'
p1321
F0.011569356894283017
sS'frightful'
p1322
F3.5347001258279263
sS'ambush'
p1323
F3.5347001258279263
sS'hatred'
p1324
F-6.383725299072409
sS'bleeds'
p1325
F-6.383725299072409
sS'credible'
p1326
F5.318174543521875
sS'accessible'
p1327
F3.5347001258279263
sS'incoherence'
p1328
F3.5347001258279263
sS'harassed'
p1329
F-5.695540907854593
sS'disturbingly'
p1330
F-5.695540907854593
sS'appropriate'
p1331
F5.318174543521875
sS'smelly'
p1332
F-5.695540907854593
sS'downhill'
p1333
F-1.0804203910133332
sS'delusional'
p1334
F-5.695540907854593
sS'impressed'
p1335
F3.5347001258279263
sS'criticisms'
p1336
F-5.695540907854593
sS'warned'
p1337
F-5.695540907854593
sS'lone'
p1338
F3.5347001258279263
sS'fast'
p1339
F1.3953689142253909
sS'bored'
p1340
F-5.695540907854593
sS'mundane'
p1341
F3.5347001258279263
sS'perplexing'
p1342
F3.5347001258279263
sS'frost'
p1343
F-5.695540907854593
sS'properly'
p1344
F3.5347001258279263
sS'dull'
p1345
F-1.7686047822311495
sS'patriot'
p1346
F5.318174543521875
sS'rejection'
p1347
F-5.695540907854593
sS'mature'
p1348
F5.136185710071532
sS'freak'
p1349
F-5.695540907854593
sS'worthwhile'
p1350
F5.472087496021257
sS'haunt'
p1351
F-5.695540907854593
sS'warning'
p1352
F0.011569356894283017
sS'evocative'
p1353
F3.5347001258279263
sS'shipwreck'
p1354
F-5.695540907854593
sS'sullen'
p1355
F3.5347001258279263
sS'puzzling'
p1356
F3.5347001258279263
sS'inequities'
p1357
F-5.695540907854593
sS'malicious'
p1358
F3.5347001258279263
sS'excuses'
p1359
F-5.695540907854593
sS'irreplaceable'
p1360
F3.5347001258279263
sS'nice'
p1361
F0.9193318402879578
sS'energetic'
p1362
F4.9135410362932355
sS'accidental'
p1363
F-6.383725299072409
sS'besiege'
p1364
F-5.695540907854593
sS'problems'
p1365
F-1.6188223260587267
sS'helping'
p1366
F-1.7710769102608266
sS'drag'
p1367
F-5.695540907854593
sS'utterly'
p1368
F-2.172410138920949
sS'drab'
p1369
F-1.0804203910133332
sS'heroine'
p1370
F-0.38976387176583976
sS'rightful'
p1371
F-5.695540907854593
sS'suffers'
p1372
F-2.6871969578979193
sS'lead'
p1373
F0.6233057287293989
sS'vice'
p1374
F3.5347001258279263
sS'scream'
p1375
F-0.38976387176583976
sS'fresh'
p1376
F4.626689873735542
sS'menace'
p1377
F0.2984205194519764
sS'degrade'
p1378
F-5.695540907854593
sS'wrestle'
p1379
F-5.695540907854593
sS'rubbish'
p1380
F-6.383725299072409
sS'rants'
p1381
F3.5347001258279263
sS'enjoyably'
p1382
F-5.695540907854593
sS'resistance'
p1383
F-1.0804203910133332
sS'enjoyable'
p1384
F1.905861426729141
sS'intricate'
p1385
F3.5347001258279263
sS'issues'
p1386
F4.9135410362932355
sS'stunned'
p1387
F-5.695540907854593
sS'concerned'
p1388
F0.014869635462798682
sS'suave'
p1389
F3.5347001258279263
sS'arrogance'
p1390
F3.5347001258279263
sS'breach'
p1391
F3.5347001258279263
sS'dislike'
p1392
F-1.0804203910133332
sS'friendly'
p1393
F-6.383725299072409
sS'nervousness'
p1394
F-5.695540907854593
sS'torture'
p1395
F-2.459261301478643
sS'felicity'
p1396
F3.5347001258279263
sS'spook'
p1397
F3.5347001258279263
sS'timely'
p1398
F3.5347001258279263
sS'magic'
p1399
F-0.38976387176583976
sS'mesmerizing'
p1400
F4.222884517045742
sS'stodgy'
p1401
F-6.383725299072409
sS'stiff'
p1402
F-6.787530655762209
sS'fast-paced'
p1403
F3.5347001258279263
sS'shock'
p1404
F-0.6766150343235332
sS'anxious'
p1405
F-5.695540907854593
sS'jaw-dropping'
p1406
F3.5347001258279263
sS'rip-off'
p1407
F-5.695540907854593
sS'exasperatingly'
p1408
F-5.695540907854593
sS'outdo'
p1409
F3.5347001258279263
sS'choppy'
p1410
F-6.787530655762209
sS'bleeding'
p1411
F4.222884517045742
sS'uncomfortably'
p1412
F3.5347001258279263
sS'sensation'
p1413
F3.5347001258279263
sS'crook'
p1414
F3.5347001258279263
sS'uncomfortable'
p1415
F-5.695540907854593
sS'odd'
p1416
F0.2984205194519764
sS'depression'
p1417
F-6.787530655762209
sS'consistently'
p1418
F1.1664100434160203
sS'rotten'
p1419
F-6.787530655762209
sS'led'
p1420
F-0.07040768159722234
sS'punch'
p1421
F4.626689873735542
sS'nonexistent'
p1422
F-1.0804203910133332
sS'poverty'
p1423
F-6.383725299072409
sS'sink'
p1424
F3.5347001258279263
sS'woefully'
p1425
F-5.695540907854593
sS'dissuade'
p1426
F3.5347001258279263
sS'sexy'
p1427
F4.626689873735542
sS'polution'
p1428
F-5.695540907854593
sS'irritating'
p1429
F4.222884517045742
sS'great'
p1430
F0.4355391768158371
sS'talent'
p1431
F0.8612162472645981
sS'survivor'
p1432
F3.5347001258279263
sS'uneasy'
p1433
F3.5347001258279263
sS'stupidity'
p1434
F-5.695540907854593
sS'defeat'
p1435
F-5.695540907854593
sS'honor'
p1436
F3.5347001258279263
sS'win'
p1437
F-0.6766150343235332
sS'limp'
p1438
F-6.787530655762209
sS'crazy'
p1439
F-1.7686047822311495
sS'hardy'
p1440
F-1.7686047822311495
sS'gimmick'
p1441
F3.5347001258279263
sS'crap'
p1442
F-6.383725299072409
sS'illegal'
p1443
F-6.383725299072409
sS'seamless'
p1444
F4.222884517045742
sS'little-known'
p1445
F4.626689873735542
sS'doubt'
p1446
F-0.8577757172350375
sS'agreeable'
p1447
F3.5347001258279263
sS'disgustingly'
p1448
F-5.695540907854593
sS'betray'
p1449
F-5.695540907854593
sS'clever'
p1450
F0.620248837650271
sS'snobbish'
p1451
F-5.695540907854593
sS'fiend'
p1452
F3.5347001258279263
sS'impress'
p1453
F-5.695540907854593
sS'charming'
p1454
F6.358551201382529
sS'ashamed'
p1455
F-6.787530655762209
sS'tattered'
p1456
F-6.383725299072409
sS'eccentricity'
p1457
F4.222884517045742
sS'annoy'
p1458
F-5.695540907854593
sS'rampant'
p1459
F-5.695540907854593
sS'lapse'
p1460
F3.5347001258279263
sS'gruff'
p1461
F3.5347001258279263
sS'praise'
p1462
F5.136185710071532
sS'bent'
p1463
F3.5347001258279263
sS'dripping'
p1464
F-5.695540907854593
sS'effectively'
p1465
F-0.38976387176583976
sS'fearsome'
p1466
F4.222884517045742
sS'magnificently'
p1467
F3.5347001258279263
sS'daring'
p1468
F-1.0804203910133332
sS'lame'
p1469
F-1.9937215840391223
sS'embarrassingly'
p1470
F-5.695540907854593
sS'struggles'
p1471
F-1.484225747703133
sS'delay'
p1472
F3.5347001258279263
sS'unquestionably'
p1473
F3.5347001258279263
sS'contempt'
p1474
F-5.695540907854593
sS'intelligent'
p1475
F1.3999152971488444
sS'sin'
p1476
F-0.392235999795517
sS'pales'
p1477
F3.5347001258279263
sS'luster'
p1478
F-5.695540907854593
sS'tension'
p1479
F6.164521155323674
sS'puppets'
p1480
F-1.0804203910133334
sS'impulsive'
p1481
F-1.0804203910133332
sS'abuse'
p1482
F-6.787530655762209
sS'fatigue'
p1483
F-5.695540907854593
sS'flagrantly'
p1484
F-5.695540907854593
sS'syndrome'
p1485
F-5.695540907854593
sS'ambiguous'
p1486
F4.626689873735542
sS'redundant'
p1487
F4.222884517045742
sS'womanizer'
p1488
F3.5347001258279263
sS'furious'
p1489
F3.5347001258279263
sS'rebellious'
p1490
F3.5347001258279263
sS'doubtful'
p1491
F-5.695540907854593
sS'perfect'
p1492
F1.057442966687293
sS'superior'
p1493
F-0.07040768159722234
sS'decay'
p1494
F3.5347001258279263
sS'winning'
p1495
F1.3953689142253909
sS'winners'
p1496
F3.5347001258279263
sS'inconsistencies'
p1497
F-5.695540907854593
sS'criminal'
p1498
F-0.392235999795517
sS'supurb'
p1499
F3.5347001258279263
sS'crash'
p1500
F4.222884517045742
sS'damages'
p1501
F-5.695540907854593
sS'heavy-handed'
p1502
F3.5347001258279263
sS'legendary'
p1503
F0.9903200392137664
sS'flee'
p1504
F-5.695540907854593
sS'masters'
p1505
F-1.0804203910133332
sS'profound'
p1506
F-5.695540907854593
sS'mastery'
p1507
F3.5347001258279263
sS'panic'
p1508
F4.222884517045742
sS'radiant'
p1509
F4.222884517045742
sS'underdog'
p1510
F-5.695540907854593
sS'unpredictable'
p1511
F4.222884517045742
sS'delightful'
p1512
F5.318174543521875
sS'trap'
p1513
F-6.383725299072409
sS'disregard'
p1514
F-5.695540907854593
sS'champ'
p1515
F-5.695540907854593
sS'flair'
p1516
F-0.392235999795517
sS'unjustly'
p1517
F-5.695540907854593
sS'tepid'
p1518
F-5.695540907854593
sS'lesser-known'
p1519
F4.222884517045742
sS'static'
p1520
F-5.695540907854593
sS'banal'
p1521
F3.5347001258279263
sS'lukewarm'
p1522
F-5.695540907854593
sS'chaos'
p1523
F-5.695540907854593
sS'venom'
p1524
F-5.695540907854593
sS'superbly'
p1525
F0.5210651932302721
sS'hilarious'
p1526
F-0.04004373315267888
sS'obsessive'
p1527
F-1.0804203910133332
sS'achievements'
p1528
F3.5347001258279263
sS'trashy'
p1529
F-5.695540907854593
sS'humiliating'
p1530
F-5.695540907854593
sS'greedy'
p1531
F-1.0804203910133332
sS'bothered'
p1532
F-5.695540907854593
sS'bleed'
p1533
F-0.392235999795517
sS'scary'
p1534
F0.21644348096047114
sS'scars'
p1535
F-5.695540907854593
sS'illicit'
p1536
F3.5347001258279263
sS'serenity'
p1537
F4.222884517045742
sS'biting'
p1538
F-0.392235999795517
sS'scare'
p1539
F4.626689873735542
sS'finest'
p1540
F-0.392235999795517
sS'succeeds'
p1541
F0.2984205194519764
sS'bleakness'
p1542
F4.222884517045742
sS'powerful'
p1543
F0.30437584248553545
sS'betrays'
p1544
F-5.695540907854593
sS'straining'
p1545
F-6.383725299072409
sS'listless'
p1546
F-5.695540907854593
sS'puppet'
p1547
F-1.0804203910133332
sS'affliction'
p1548
F3.5347001258279263
sS'miserably'
p1549
F-5.695540907854593
sS'sadly'
p1550
F-0.10166970869384961
sS'cynical'
p1551
F4.222884517045742
sS'unknown'
p1552
F0.5210651932302721
sS'vulgar'
p1553
F4.9135410362932355
sS'attack'
p1554
F-2.6819059752569383
sS'exhilarating'
p1555
F3.5347001258279263
sS'perfectly'
p1556
F6.2979633219833815
sS'painful'
p1557
F-1.0804203910133334
sS'misunderstood'
p1558
F-2.459261301478643
sS'agility'
p1559
F3.5347001258279263
sS'punish'
p1560
F-5.695540907854593
sS'doomed'
p1561
F-1.7686047822311495
sS'shallow'
p1562
F-6.787530655762209
sS'dreary'
p1563
F-5.695540907854593
sS'depressing'
p1564
F4.9135410362932355
sS'vouch'
p1565
F3.5347001258279263
sS'manipulation'
p1566
F-5.695540907854593
sS'fuzzy'
p1567
F-2.6819059752569383
sS'overwhelming'
p1568
F4.626689873735542
sS'elite'
p1569
F-5.695540907854593
sS'loved'
p1570
F0.3996405894282638
sS'glamorous'
p1571
F3.5347001258279263
sS'isolation'
p1572
F-1.0804203910133332
sS'bother'
p1573
F4.222884517045742
sS'richer'
p1574
F-1.0804203910133334
sS'extraordinarily'
p1575
F-5.695540907854593
sS'tortured'
p1576
F4.222884517045742
sS'appealing'
p1577
F4.222884517045742
sS'loves'
p1578
F-1.3030650647916289
sS'lover'
p1579
F4.626689873735542
sS'steep'
p1580
F-5.695540907854593
sS'ingenious'
p1581
F-5.695540907854593
sS'imaginative'
p1582
F4.9135410362932355
sS'false'
p1583
F-2.172410138920949
sS'beggar'
p1584
F-5.695540907854593
sS'abomination'
p1585
F4.222884517045742
sS'comfortable'
p1586
F4.626689873735542
sS'sardonic'
p1587
F4.222884517045742
sS'torment'
p1588
F3.5347001258279263
sS'sincerity'
p1589
F3.5347001258279263
sS'miserable'
p1590
F-7.297026492098198
sS'blockbuster'
p1591
F-1.0804203910133334
sS'clearly'
p1592
F0.30213564799595033
sS'bastard'
p1593
F-6.787530655762209
sS'afraid'
p1594
F-5.695540907854593
sS'skillful'
p1595
F3.5347001258279263
sS'awed'
p1596
F3.5347001258279263
sS'forbidden'
p1597
F-0.392235999795517
sS'concerns'
p1598
F3.5347001258279263
sS'clash'
p1599
F3.5347001258279263
sS'classy'
p1600
F3.5347001258279263
sS'vengeance'
p1601
F3.5347001258279263
sS'demise'
p1602
F-1.7686047822311495
sS'prisoner'
p1603
F-1.7686047822311495
sS'awe'
p1604
F3.5347001258279263
sS'fervent'
p1605
F3.5347001258279263
sS'deny'
p1606
F-0.392235999795517
sS'inexorable'
p1607
F3.5347001258279263
sS'refreshing'
p1608
F5.136185710071532
sS'appallingly'
p1609
F-5.695540907854593
sS'stronger'
p1610
F-6.383725299072409
sS'astonishing'
p1611
F3.5347001258279263
sS'absurd'
p1612
F-0.392235999795517
sS'skinny'
p1613
F3.5347001258279263
sS'inane'
p1614
F3.5347001258279263
sS'pleases'
p1615
F3.5347001258279263
sS'supported'
p1616
F5.605440556055026
sS'fear'
p1617
F-1.484225747703133
sS'trivial'
p1618
F3.5347001258279263
sS'pleased'
p1619
F4.626689873735542
sS'inspiring'
p1620
F5.318174543521875
sS'untimely'
p1621
F3.5347001258279263
sS'winner'
p1622
F0.7030540266806149
sS'hopeful'
p1623
F3.5347001258279263
sS'fans'
p1624
F0.9042635998750032
sS'brighter'
p1625
F4.222884517045742
sS'jam'
p1626
F3.5347001258279263
sS'inferior'
p1627
F-2.459261301478643
sS'sued'
p1628
F-6.383725299072409
sS'exceptional'
p1629
F5.605440556055026
sS'dope'
p1630
F-7.074381818319902
sS'unbeatable'
p1631
F4.222884517045742
sS'lucky'
p1632
F0.011569356894283017
sS'perfection'
p1633
F4.626689873735542
sS'ghetto'
p1634
F-5.695540907854593
sS'smash'
p1635
F-1.0804203910133332
sS'dejected'
p1636
F-5.695540907854593
sS'corruption'
p1637
F-0.392235999795517
sS'protesting'
p1638
F-5.695540907854593
sS'futuristic'
p1639
F-0.392235999795517
sS'enhances'
p1640
F4.222884517045742
sS'inventive'
p1641
F3.5347001258279263
sS'showdown'
p1642
F4.222884517045742
sS'orphan'
p1643
F-0.392235999795517
sS'freeze'
p1644
F-5.695540907854593
sS'triumphant'
p1645
F-5.695540907854593
sS'enhanced'
p1646
F0.30213564799595033
sS'insulting'
p1647
F-5.695540907854593
sS'nightmare'
p1648
F-1.0804203910133334
sS'junky'
p1649
F3.5347001258279263
sS'superb'
p1650
F2.578281910515904
sS'favor'
p1651
F-0.392235999795517
sS'unravel'
p1652
F3.5347001258279263
sS'injustice'
p1653
F-5.695540907854593
sS'horrible'
p1654
F-1.7710769102608266
sS'progress'
p1655
F-0.392235999795517
sS'sabotage'
p1656
F3.5347001258279263
sS'complement'
p1657
F4.222884517045742
sS'disgruntled'
p1658
F-5.695540907854593
sS'believeable'
p1659
F3.5347001258279263
sS'extravagant'
p1660
F-5.695540907854593
sS'joy'
p1661
F4.626689873735542
sS'sorrow'
p1662
F-5.695540907854593
sS'merry'
p1663
F-0.392235999795517
sS'approval'
p1664
F3.5347001258279263
sS'swift'
p1665
F-5.695540907854593
sS'solace'
p1666
F-5.695540907854593
sS'empathy'
p1667
F-6.383725299072409
sS'sharply'
p1668
F-5.695540907854593
sS'limits'
p1669
F4.222884517045742
sS'profanity'
p1670
F-6.383725299072409
sS'valiantly'
p1671
F3.5347001258279263
sS'assure'
p1672
F3.5347001258279263
sS'safely'
p1673
F3.5347001258279263
sS'glorious'
p1674
F4.9135410362932355
sS'unconvincing'
p1675
F-6.383725299072409
sS'commend'
p1676
F4.626689873735542
sS'cynicism'
p1677
F-1.0804203910133332
sS'respect'
p1678
F0.011569356894283017
sS'brotherly'
p1679
F-5.695540907854593
sS'decent'
p1680
F-0.3190414464144614
sS'muddy'
p1681
F-6.383725299072409
sS'dazzling'
p1682
F5.318174543521875
sS'immense'
p1683
F3.5347001258279263
sS'willing'
p1684
F-1.0804203910133332
sS'slowly'
p1685
F-2.172410138920949
sS'upbeat'
p1686
F-0.392235999795517
sS'waste'
p1687
F-2.6871969578979193
sS'sufficient'
p1688
F-5.695540907854593
sS'tense'
p1689
F4.626689873735542
sS'hateful'
p1690
F3.5347001258279263
sS'lecherous'
p1691
F-5.695540907854593
sS'intimidate'
p1692
F-5.695540907854593
sS'harden'
p1693
F0.011569356894283017
sS'stunning'
p1694
F0.30337916631777473
sS'wild'
p1695
F-1.0804203910133334
sS'frustrating'
p1696
F3.5347001258279263
sS'likable'
p1697
F4.626689873735542
sS'chaotic'
p1698
F-5.695540907854593
sS'insanely'
p1699
F-5.695540907854593
sS'helped'
p1700
F-1.0804203910133332
sS'draining'
p1701
F3.5347001258279263
sS'excessively'
p1702
F-5.695540907854593
sS'optimistic'
p1703
F3.5347001258279263
sS'thug'
p1704
F3.5347001258279263
sS'sensitive'
p1705
F-0.6766150343235332
sS'unity'
p1706
F3.5347001258279263
sS'strange'
p1707
F0.014869635462798682
sS'smarter'
p1708
F-5.695540907854593
sS'terrorism'
p1709
F-6.383725299072409
sS'privileged'
p1710
F-5.695540907854593
sS'difficult'
p1711
F-0.9751708693064506
sS'slave'
p1712
F3.5347001258279263
sS'complemented'
p1713
F3.5347001258279263
sS'rightfully'
p1714
F-1.0804203910133332
sS'eccentric'
p1715
F3.5347001258279263
sS'prodigiously'
p1716
F3.5347001258279263
sS'disagree'
p1717
F0.011569356894283017
sS'abounds'
p1718
F3.5347001258279263
sS'outcast'
p1719
F-1.0804203910133332
sS'laughably'
p1720
F-7.297026492098198
sS'dust'
p1721
F3.5347001258279263
sS'impeccable'
p1722
F3.5347001258279263
sS'steals'
p1723
F5.136185710071532
sS'destruction'
p1724
F-1.0804203910133332
sS'rift'
p1725
F3.5347001258279263
sS'gutter'
p1726
F-5.695540907854593
sS'variety'
p1727
F0.4197799585359289
sS'well'
p1728
F1.1889523815600784
sS'rife'
p1729
F3.5347001258279263
sS'exceedingly'
p1730
F3.5347001258279263
sS'excessive'
p1731
F-1.7686047822311495
sS'stooge'
p1732
F-1.0804203910133332
sS'accurate'
p1733
F1.1079643497537452
sS'mistakes'
p1734
F-6.787530655762209
sS'skill'
p1735
F-1.7686047822311495
sS'happiness'
p1736
F4.626689873735542
sS'generous'
p1737
F3.5347001258279263
sS'rapid'
p1738
F-1.0804203910133332
sS'surreal'
p1739
F-0.392235999795517
sS'morbidly'
p1740
F3.5347001258279263
sS'attractive'
p1741
F-0.38976387176583976
sS'crack'
p1742
F3.5347001258279263
sS'smart'
p1743
F0.9301615325610529
sS'captivating'
p1744
F5.136185710071532
sS'burden'
p1745
F-5.695540907854593
sS'loss'
p1746
F-2.172410138920949
sS'racists'
p1747
F-5.695540907854593
sS'crisp'
p1748
F6.2979633219833815
sS'like'
p1749
F-0.8041944411117382
sS'success'
p1750
F0.7030540266806149
sS'vibrant'
p1751
F5.723084866595005
sS'loser'
p1752
F-7.074381818319902
sS'loses'
p1753
F-7.074381818319902
sS'estranged'
p1754
F-1.0804203910133332
sS'lose'
p1755
F3.5347001258279263
sS'works'
p1756
F-0.2340737792115339
sS'soft'
p1757
F-0.7935692284556397
sS'inexperienced'
p1758
F-1.0804203910133332
sS'razor-sharp'
p1759
F3.5347001258279263
sS'sully'
p1760
F3.5347001258279263
sS'shabby'
p1761
F-5.695540907854593
sS'smoothly'
p1762
F3.5347001258279263
sS'scared'
p1763
F-2.172410138920949
sS'recommendation'
p1764
F4.222884517045742
sS'proper'
p1765
F-1.0804203910133332
sS'liking'
p1766
F-1.0804203910133332
sS'supportive'
p1767
F4.626689873735542
sS'disbelief'
p1768
F3.5347001258279263
sS'lean'
p1769
F3.5347001258279263
sS'rewarding'
p1770
F3.5347001258279263
sS'passion'
p1771
F-1.0804203910133334
sS'screwed'
p1772
F-1.7686047822311495
sS'blurry'
p1773
F-1.0804203910133332
sS'limitations'
p1774
F-5.695540907854593
sS'noise'
p1775
F4.222884517045742
sS'inaccurate'
p1776
F3.5347001258279263
sS'stellar'
p1777
F5.828334388301887
sS'poignant'
p1778
F-0.1671191979875441
sS'worthy'
p1779
F6.164521155323674
sS'imaginary'
p1780
F-5.695540907854593
sS'gained'
p1781
F-5.695540907854593
sS'wreak'
p1782
F-5.695540907854593
sS'freedom'
p1783
F-0.392235999795517
sS'sinister'
p1784
F5.318174543521875
sS'insufficient'
p1785
F3.5347001258279263
sS'polished'
p1786
F5.136185710071532
sS'seasoned'
p1787
F-1.0804203910133334
sS'commitment'
p1788
F-5.695540907854593
sS'promise'
p1789
F-1.0804203910133334
sS'secretive'
p1790
F3.5347001258279263
sS'negate'
p1791
F3.5347001258279263
sS'pointless'
p1792
F-0.6766150343235332
sS'brilliantly'
p1793
F5.318174543521875
sS'frustration'
p1794
F-5.695540907854593
sS'troubling'
p1795
F-0.392235999795517
sS'touted'
p1796
F-5.695540907854593
sS'disdained'
p1797
F-5.695540907854593
sS'gain'
p1798
F-1.0804203910133332
sS'strident'
p1799
F3.5347001258279263
sS'selfish'
p1800
F-6.383725299072409
sS'detestable'
p1801
F3.5347001258279263
sS'wise'
p1802
F0.2984205194519764
sS'glory'
p1803
F4.222884517045742
sS'dangerous'
p1804
F-1.484225747703133
sS'distract'
p1805
F-1.0804203910133334
sS'excitement'
p1806
F4.222884517045742
sS'cruel'
p1807
F-1.0804203910133332
sS'problem'
p1808
F-0.6289541413252434
sS'supreme'
p1809
F4.9135410362932355
sS'horrific'
p1810
F4.222884517045742
sS'pig'
p1811
F-7.4790153255485405
sS'twist'
p1812
F1.7434306845412693
sS'goodness'
p1813
F-1.0804203910133332
sS'unwatchable'
p1814
F-1.7686047822311495
sS'renowned'
p1815
F3.5347001258279263
sS'unintelligible'
p1816
F3.5347001258279263
sS'incredible'
p1817
F1.3084332288680873
sS'deadly'
p1818
F4.222884517045742
sS'spellbinding'
p1819
F4.222884517045742
sS'crummy'
p1820
F3.5347001258279263
sS'sick'
p1821
F-7.4790153255485405
sS'cutthroat'
p1822
F-5.695540907854593
sS'long-time'
p1823
F3.5347001258279263
sS'incredibly'
p1824
F-2.513982990773469
sS'junk'
p1825
F-5.695540907854593
sS'blunders'
p1826
F3.5347001258279263
sS'oppression'
p1827
F-5.695540907854593
sS'astounding'
p1828
F4.626689873735542
sS'frustrate'
p1829
F3.5347001258279263
sS'inspiration'
p1830
F3.5347001258279263
sS'villainous'
p1831
F4.626689873735542
s.